target datalayout = "e-m:e-p270:32:32-p271:32:32-p272:64:64-i64:64-i128:128-f80:128-n8:16:32:64-S128"
target triple = "x86_64-pc-linux-gnu"

%struct.sha3_ctx = type { [25 x i64], [24 x i64], i32, i32 }

; Function Attrs: nounwind uwtable
define dso_local void @rhash_sha3_update(ptr noundef %0, ptr noundef %1, i64 noundef %2) #0 {
  %4 = alloca ptr, align 8
  %5 = alloca ptr, align 8
  %6 = alloca i64, align 8
  %7 = alloca i64, align 8
  %8 = alloca i64, align 8
  %9 = alloca i32, align 4
  %10 = alloca i64, align 8
  %11 = alloca ptr, align 8
  store ptr %0, ptr %4, align 8, !tbaa !4
  store ptr %1, ptr %5, align 8, !tbaa !13
  store i64 %2, ptr %6, align 8, !tbaa !15
  call void @llvm.lifetime.start.p0(i64 8, ptr %7) #4
  %12 = load ptr, ptr %4, align 8, !tbaa !4
  %13 = getelementptr inbounds nuw %struct.sha3_ctx, ptr %12, i32 0, i32 2
  %14 = load i32, ptr %13, align 8, !tbaa !17
  %15 = zext i32 %14 to i64
  store i64 %15, ptr %7, align 8, !tbaa !15
  call void @llvm.lifetime.start.p0(i64 8, ptr %8) #4
  %16 = load ptr, ptr %4, align 8, !tbaa !4
  %17 = getelementptr inbounds nuw %struct.sha3_ctx, ptr %16, i32 0, i32 3
  %18 = load i32, ptr %17, align 4, !tbaa !11
  %19 = zext i32 %18 to i64
  store i64 %19, ptr %8, align 8, !tbaa !15
  %20 = load ptr, ptr %4, align 8, !tbaa !4
  %21 = getelementptr inbounds nuw %struct.sha3_ctx, ptr %20, i32 0, i32 2
  %22 = load i32, ptr %21, align 8, !tbaa !17
  %23 = and i32 %22, -2147483648
  %24 = icmp ne i32 %23, 0
  br i1 %24, label %25, label %26

25:                                               ; preds = %3
  store i32 1, ptr %9, align 4
  br label %123

26:                                               ; preds = %3
  %27 = load ptr, ptr %4, align 8, !tbaa !4
  %28 = getelementptr inbounds nuw %struct.sha3_ctx, ptr %27, i32 0, i32 2
  %29 = load i32, ptr %28, align 8, !tbaa !17
  %30 = zext i32 %29 to i64
  %31 = load i64, ptr %6, align 8, !tbaa !15
  %32 = add i64 %30, %31
  %33 = load i64, ptr %8, align 8, !tbaa !15
  %34 = urem i64 %32, %33
  %35 = trunc i64 %34 to i32
  %36 = load ptr, ptr %4, align 8, !tbaa !4
  %37 = getelementptr inbounds nuw %struct.sha3_ctx, ptr %36, i32 0, i32 2
  store i32 %35, ptr %37, align 8, !tbaa !17
  %38 = load i64, ptr %7, align 8, !tbaa !15
  %39 = icmp ne i64 %38, 0
  br i1 %39, label %40, label %80

40:                                               ; preds = %26
  call void @llvm.lifetime.start.p0(i64 8, ptr %10) #4
  %41 = load i64, ptr %8, align 8, !tbaa !15
  %42 = load i64, ptr %7, align 8, !tbaa !15
  %43 = sub i64 %41, %42
  store i64 %43, ptr %10, align 8, !tbaa !15
  %44 = load ptr, ptr %4, align 8, !tbaa !4
  %45 = getelementptr inbounds nuw %struct.sha3_ctx, ptr %44, i32 0, i32 1
  %46 = getelementptr inbounds [24 x i64], ptr %45, i64 0, i64 0
  %47 = load i64, ptr %7, align 8, !tbaa !15
  %48 = getelementptr inbounds nuw i8, ptr %46, i64 %47
  %49 = load ptr, ptr %5, align 8, !tbaa !13
  %50 = load i64, ptr %6, align 8, !tbaa !15
  %51 = load i64, ptr %10, align 8, !tbaa !15
  %52 = icmp ult i64 %50, %51
  br i1 %52, label %53, label %55

53:                                               ; preds = %40
  %54 = load i64, ptr %6, align 8, !tbaa !15
  br label %57

55:                                               ; preds = %40
  %56 = load i64, ptr %10, align 8, !tbaa !15
  br label %57

57:                                               ; preds = %55, %53
  %58 = phi i64 [ %54, %53 ], [ %56, %55 ]
  call void @llvm.memcpy.p0.p0.i64(ptr align 1 %48, ptr align 1 %49, i64 %58, i1 false)
  %59 = load i64, ptr %6, align 8, !tbaa !15
  %60 = load i64, ptr %10, align 8, !tbaa !15
  %61 = icmp ult i64 %59, %60
  br i1 %61, label %62, label %63

62:                                               ; preds = %57
  store i32 1, ptr %9, align 4
  br label %77

63:                                               ; preds = %57
  %64 = load ptr, ptr %4, align 8, !tbaa !4
  %65 = getelementptr inbounds nuw %struct.sha3_ctx, ptr %64, i32 0, i32 0
  %66 = getelementptr inbounds [25 x i64], ptr %65, i64 0, i64 0
  %67 = load ptr, ptr %4, align 8, !tbaa !4
  %68 = getelementptr inbounds nuw %struct.sha3_ctx, ptr %67, i32 0, i32 1
  %69 = getelementptr inbounds [24 x i64], ptr %68, i64 0, i64 0
  %70 = load i64, ptr %8, align 8, !tbaa !15
  call void @rhash_sha3_process_block(ptr noundef %66, ptr noundef %69, i64 noundef %70)
  %71 = load i64, ptr %10, align 8, !tbaa !15
  %72 = load ptr, ptr %5, align 8, !tbaa !13
  %73 = getelementptr inbounds nuw i8, ptr %72, i64 %71
  store ptr %73, ptr %5, align 8, !tbaa !13
  %74 = load i64, ptr %10, align 8, !tbaa !15
  %75 = load i64, ptr %6, align 8, !tbaa !15
  %76 = sub i64 %75, %74
  store i64 %76, ptr %6, align 8, !tbaa !15
  store i32 0, ptr %9, align 4
  br label %77

77:                                               ; preds = %63, %62
  call void @llvm.lifetime.end.p0(i64 8, ptr %10) #4
  %78 = load i32, ptr %9, align 4
  switch i32 %78, label %123 [
    i32 0, label %79
  ]

79:                                               ; preds = %77
  br label %80

80:                                               ; preds = %79, %26
  br label %81

81:                                               ; preds = %101, %80
  %82 = load i64, ptr %6, align 8, !tbaa !15
  %83 = load i64, ptr %8, align 8, !tbaa !15
  %84 = icmp uge i64 %82, %83
  br i1 %84, label %85, label %113

85:                                               ; preds = %81
  call void @llvm.lifetime.start.p0(i64 8, ptr %11) #4
  %86 = load ptr, ptr %5, align 8, !tbaa !13
  %87 = ptrtoint ptr %86 to i64
  %88 = and i64 7, %87
  %89 = icmp eq i64 0, %88
  br i1 %89, label %90, label %92

90:                                               ; preds = %85
  %91 = load ptr, ptr %5, align 8, !tbaa !13
  store ptr %91, ptr %11, align 8, !tbaa !18
  br label %101

92:                                               ; preds = %85
  %93 = load ptr, ptr %4, align 8, !tbaa !4
  %94 = getelementptr inbounds nuw %struct.sha3_ctx, ptr %93, i32 0, i32 1
  %95 = getelementptr inbounds [24 x i64], ptr %94, i64 0, i64 0
  %96 = load ptr, ptr %5, align 8, !tbaa !13
  %97 = load i64, ptr %8, align 8, !tbaa !15
  call void @llvm.memcpy.p0.p0.i64(ptr align 8 %95, ptr align 1 %96, i64 %97, i1 false)
  %98 = load ptr, ptr %4, align 8, !tbaa !4
  %99 = getelementptr inbounds nuw %struct.sha3_ctx, ptr %98, i32 0, i32 1
  %100 = getelementptr inbounds [24 x i64], ptr %99, i64 0, i64 0
  store ptr %100, ptr %11, align 8, !tbaa !18
  br label %101

101:                                              ; preds = %92, %90
  %102 = load ptr, ptr %4, align 8, !tbaa !4
  %103 = getelementptr inbounds nuw %struct.sha3_ctx, ptr %102, i32 0, i32 0
  %104 = getelementptr inbounds [25 x i64], ptr %103, i64 0, i64 0
  %105 = load ptr, ptr %11, align 8, !tbaa !18
  %106 = load i64, ptr %8, align 8, !tbaa !15
  call void @rhash_sha3_process_block(ptr noundef %104, ptr noundef %105, i64 noundef %106)
  %107 = load i64, ptr %8, align 8, !tbaa !15
  %108 = load ptr, ptr %5, align 8, !tbaa !13
  %109 = getelementptr inbounds nuw i8, ptr %108, i64 %107
  store ptr %109, ptr %5, align 8, !tbaa !13
  %110 = load i64, ptr %8, align 8, !tbaa !15
  %111 = load i64, ptr %6, align 8, !tbaa !15
  %112 = sub i64 %111, %110
  store i64 %112, ptr %6, align 8, !tbaa !15
  call void @llvm.lifetime.end.p0(i64 8, ptr %11) #4
  br label %81, !llvm.loop !20

113:                                              ; preds = %81
  %114 = load i64, ptr %6, align 8, !tbaa !15
  %115 = icmp ne i64 %114, 0
  br i1 %115, label %116, label %122

116:                                              ; preds = %113
  %117 = load ptr, ptr %4, align 8, !tbaa !4
  %118 = getelementptr inbounds nuw %struct.sha3_ctx, ptr %117, i32 0, i32 1
  %119 = getelementptr inbounds [24 x i64], ptr %118, i64 0, i64 0
  %120 = load ptr, ptr %5, align 8, !tbaa !13
  %121 = load i64, ptr %6, align 8, !tbaa !15
  call void @llvm.memcpy.p0.p0.i64(ptr align 8 %119, ptr align 1 %120, i64 %121, i1 false)
  br label %122

122:                                              ; preds = %116, %113
  store i32 0, ptr %9, align 4
  br label %123

123:                                              ; preds = %122, %77, %25
  call void @llvm.lifetime.end.p0(i64 8, ptr %8) #4
  call void @llvm.lifetime.end.p0(i64 8, ptr %7) #4
  %124 = load i32, ptr %9, align 4
  switch i32 %124, label %126 [
    i32 0, label %125
    i32 1, label %125
  ]

125:                                              ; preds = %123, %123
  ret void

126:                                              ; preds = %123
  unreachable
}